target datalayout = "e-m:e-p270:32:32-p271:32:32-p272:64:64-i64:64-i128:128-f80:128-n8:16:32:64-S128"
target triple = "x86_64-pc-linux-gnu"

@_ZL20gbl_cur_main_window_ = internal global ptr null, align 8
@mainApp = external global ptr, align 8
@.str.608 = private unnamed_addr constant [12 x i8] c"pref_module\00", align 1
@.str.609 = private unnamed_addr constant [9 x i8] c"pref_key\00", align 1
@.str.610 = private unnamed_addr constant [11 x i8] c"pref_value\00", align 1

; Function Attrs: mustprogress uwtable
define internal void @_ZL31plugin_if_mainwindow_preferenceP11_GHashTable(ptr noundef %0) #0 {
  %2 = alloca ptr, align 8
  %3 = alloca ptr, align 8
  %4 = alloca ptr, align 8
  %5 = alloca ptr, align 8
  %6 = alloca i32, align 4
  store ptr %0, ptr %2, align 8
  %7 = load ptr, ptr @_ZL20gbl_cur_main_window_, align 8
  %8 = icmp ne ptr %7, null
  br i1 %8, label %9, label %12

9:                                                ; preds = %1
  %10 = load ptr, ptr %2, align 8
  %11 = icmp ne ptr %10, null
  br i1 %11, label %13, label %12

12:                                               ; preds = %9, %1
  br label %36

13:                                               ; preds = %9
  %14 = load ptr, ptr %2, align 8
  %15 = call i32 @g_hash_table_lookup_extended(ptr noundef %14, ptr noundef @.str.608, ptr noundef null, ptr noundef %3)
  %16 = icmp ne i32 %15, 0
  br i1 %16, label %17, label %36

17:                                               ; preds = %13
  %18 = load ptr, ptr %2, align 8
  %19 = call i32 @g_hash_table_lookup_extended(ptr noundef %18, ptr noundef @.str.609, ptr noundef null, ptr noundef %4)
  %20 = icmp ne i32 %19, 0
  br i1 %20, label %21, label %36

21:                                               ; preds = %17
  %22 = load ptr, ptr %2, align 8
  %23 = call i32 @g_hash_table_lookup_extended(ptr noundef %22, ptr noundef @.str.610, ptr noundef null, ptr noundef %5)
  %24 = icmp ne i32 %23, 0
  br i1 %24, label %25, label %36

25:                                               ; preds = %21
  %26 = load ptr, ptr %3, align 8
  %27 = load ptr, ptr %4, align 8
  %28 = load ptr, ptr %5, align 8
  %29 = call i32 @prefs_store_ext(ptr noundef %26, ptr noundef %27, ptr noundef %28)
  store i32 %29, ptr %6, align 4
  %30 = load i32, ptr %6, align 4
  %31 = icmp ne i32 %30, 0
  br i1 %31, label %32, label %35

32:                                               ; preds = %25
  %33 = load ptr, ptr @mainApp, align 8
  call void @_ZN15MainApplication13emitAppSignalENS_9AppSignalE(ptr noundef nonnull align 8 dereferenceable(216) %33, i32 noundef 8)
  %34 = load ptr, ptr @mainApp, align 8
  call void @_ZN15MainApplication13emitAppSignalENS_9AppSignalE(ptr noundef nonnull align 8 dereferenceable(216) %34, i32 noundef 9)
  br label %35

35:                                               ; preds = %32, %25
  br label %36

36:                                               ; preds = %35, %21, %17, %13, %12
  ret void
}