; Function Attrs: mustprogress uwtable
define internal void @_ZL31plugin_if_mainwindow_preferenceP11_GHashTable(ptr noundef %0) #0 {
  %2 = alloca ptr, align 8
  %3 = alloca ptr, align 8
  %4 = alloca ptr, align 8
  %5 = load ptr, ptr @_ZL20gbl_cur_main_window_, align 8
  %6 = icmp ne ptr %5, null
  %7 = icmp ne ptr %0, null
  %or.cond = and i1 %7, %6
  br i1 %or.cond, label %8, label %22

8:                                                ; preds = %1
  %9 = call i32 @g_hash_table_lookup_extended(ptr noundef nonnull %0, ptr noundef nonnull @.str.608, ptr noundef null, ptr noundef nonnull %2)
  %.not = icmp eq i32 %9, 0
  br i1 %.not, label %22, label %10

10:                                               ; preds = %8
  %11 = call i32 @g_hash_table_lookup_extended(ptr noundef nonnull %0, ptr noundef nonnull @.str.609, ptr noundef null, ptr noundef nonnull %3)
  %.not5 = icmp eq i32 %11, 0
  br i1 %.not5, label %22, label %12

12:                                               ; preds = %10
  %13 = call i32 @g_hash_table_lookup_extended(ptr noundef nonnull %0, ptr noundef nonnull @.str.610, ptr noundef null, ptr noundef nonnull %4)
  %.not6 = icmp eq i32 %13, 0
  br i1 %.not6, label %22, label %14

14:                                               ; preds = %12
  %15 = load ptr, ptr %2, align 8
  %16 = load ptr, ptr %3, align 8
  %17 = load ptr, ptr %4, align 8
  %18 = call i32 @prefs_store_ext(ptr noundef %15, ptr noundef %16, ptr noundef %17)
  %.not7 = icmp eq i32 %18, 0
  br i1 %.not7, label %22, label %19

19:                                               ; preds = %14
  %20 = load ptr, ptr @mainApp, align 8
  call void @_ZN15MainApplication13emitAppSignalENS_9AppSignalE(ptr noundef nonnull align 8 dereferenceable(216) %20, i32 noundef 8)
  %21 = load ptr, ptr @mainApp, align 8
  call void @_ZN15MainApplication13emitAppSignalENS_9AppSignalE(ptr noundef nonnull align 8 dereferenceable(216) %21, i32 noundef 9)
  br label %22

22:                                               ; preds = %14, %19, %1, %12, %10, %8
  ret void
}